; Function Attrs: mustprogress uwtable
define internal noundef ptr @"_ZN3tbb6detail2d113function_taskIN32pxrInternal_v0_24__pxrReserved__14WorkDispatcher12_InvokerTaskIZNS3_18UsdImagingDelegate19ApplyPendingUpdatesEvE3$_2EEE6cancelERNS1_14execution_dataE"(ptr noundef nonnull align 64 dereferenceable(112) %0, ptr noundef nonnull align 8 dereferenceable(12) %1) unnamed_addr #0 align 2 {
  %3 = getelementptr inbounds nuw i8, ptr %0, i64 96
  %4 = load ptr, ptr %3, align 32
  %5 = getelementptr inbounds nuw i8, ptr %0, i64 104
  %6 = load i64, ptr %5, align 8
  %7 = load ptr, ptr %0, align 64
  %8 = load ptr, ptr %7, align 8
  tail call void %8(ptr noundef nonnull align 64 dereferenceable(112) %0) #30
  %9 = getelementptr inbounds nuw i8, ptr %4, i64 8
  %10 = atomicrmw add ptr %9, i64 -1 seq_cst, align 8
  %.not.i.i.i = icmp eq i64 %10, 1
  br i1 %.not.i.i.i, label %11, label %"_ZN3tbb6detail2d113function_taskIN32pxrInternal_v0_24__pxrReserved__14WorkDispatcher12_InvokerTaskIZNS3_18UsdImagingDelegate19ApplyPendingUpdatesEvE3$_2EEE8finalizeERKNS1_14execution_dataE.exit"

11:                                               ; preds = %2
  %12 = ptrtoint ptr %4 to i64
  tail call void @_ZN3tbb6detail2r114notify_waitersEm(i64 noundef %12)
  br label %"_ZN3tbb6detail2d113function_taskIN32pxrInternal_v0_24__pxrReserved__14WorkDispatcher12_InvokerTaskIZNS3_18UsdImagingDelegate19ApplyPendingUpdatesEvE3$_2EEE8finalizeERKNS1_14execution_dataE.exit"

"_ZN3tbb6detail2d113function_taskIN32pxrInternal_v0_24__pxrReserved__14WorkDispatcher12_InvokerTaskIZNS3_18UsdImagingDelegate19ApplyPendingUpdatesEvE3$_2EEE8finalizeERKNS1_14execution_dataE.exit": ; preds = %2, %11
  %13 = inttoptr i64 %6 to ptr
  tail call void @_ZN3tbb6detail2r110deallocateERNS0_2d117small_object_poolEPvmRKNS2_14execution_dataE(ptr noundef nonnull align 1 dereferenceable(1) %13, ptr noundef nonnull %0, i64 noundef 128, ptr noundef nonnull align 8 dereferenceable(12) %1)
  ret ptr null
}